target datalayout = "e-m:e-p270:32:32-p271:32:32-p272:64:64-i64:64-i128:128-f80:128-n8:16:32:64-S128"
target triple = "x86_64-pc-linux-gnu"

@.str = private unnamed_addr constant [3 x i8] c"%s\00", align 1
@.str.63 = private unnamed_addr constant [3 x i8] c" \22\00", align 1
@.str.64 = private unnamed_addr constant [2 x i8] c"\22\00", align 1
@.str.65 = private unnamed_addr constant [4 x i8] c"/%s\00", align 1

; Function Attrs: nounwind uwtable
define void @h5tools_str_sprint_reference(ptr noundef %0, ptr noundef %1) #0 {
  %3 = alloca ptr, align 8
  %4 = alloca ptr, align 8
  %5 = alloca i64, align 8
  %6 = alloca ptr, align 8
  %7 = alloca ptr, align 8
  %8 = alloca ptr, align 8
  store ptr %0, ptr %3, align 8, !tbaa !3
  store ptr %1, ptr %4, align 8, !tbaa !46
  call void @llvm.lifetime.start.p0(i64 8, ptr %5) #12
  br label %9

9:                                                ; preds = %2
  br label %10

10:                                               ; preds = %9
  br label %11

11:                                               ; preds = %10
  %12 = load ptr, ptr %3, align 8, !tbaa !3
  %13 = call ptr (ptr, ptr, ...) @h5tools_str_append(ptr noundef %12, ptr noundef @.str.63)
  %14 = load ptr, ptr %4, align 8, !tbaa !46
  %15 = call i64 @H5Rget_file_name(ptr noundef %14, ptr noundef null, i64 noundef 0)
  store i64 %15, ptr %5, align 8, !tbaa !17
  br label %16

16:                                               ; preds = %11
  br label %17

17:                                               ; preds = %16
  br label %18

18:                                               ; preds = %17
  %19 = load i64, ptr %5, align 8, !tbaa !17
  %20 = icmp ne i64 %19, 0
  br i1 %20, label %21, label %44

21:                                               ; preds = %18
  call void @llvm.lifetime.start.p0(i64 8, ptr %6) #12
  %22 = load i64, ptr %5, align 8, !tbaa !17
  %23 = mul i64 1, %22
  %24 = add i64 %23, 1
  %25 = call noalias ptr @malloc(i64 noundef %24) #15
  store ptr %25, ptr %6, align 8, !tbaa !14
  %26 = load ptr, ptr %4, align 8, !tbaa !46
  %27 = load ptr, ptr %6, align 8, !tbaa !14
  %28 = load i64, ptr %5, align 8, !tbaa !17
  %29 = add i64 %28, 1
  %30 = call i64 @H5Rget_file_name(ptr noundef %26, ptr noundef %27, i64 noundef %29)
  %31 = icmp sge i64 %30, 0
  br i1 %31, label %32, label %42

32:                                               ; preds = %21
  %33 = load ptr, ptr %6, align 8, !tbaa !14
  %34 = load i64, ptr %5, align 8, !tbaa !17
  %35 = getelementptr inbounds i8, ptr %33, i64 %34
  store i8 0, ptr %35, align 1, !tbaa !18
  br label %36

36:                                               ; preds = %32
  br label %37

37:                                               ; preds = %36
  br label %38

38:                                               ; preds = %37
  %39 = load ptr, ptr %3, align 8, !tbaa !3
  %40 = load ptr, ptr %6, align 8, !tbaa !14
  %41 = call ptr (ptr, ptr, ...) @h5tools_str_append(ptr noundef %39, ptr noundef @.str, ptr noundef %40)
  br label %42

42:                                               ; preds = %38, %21
  %43 = load ptr, ptr %6, align 8, !tbaa !14
  call void @free(ptr noundef %43) #12
  call void @llvm.lifetime.end.p0(i64 8, ptr %6) #12
  br label %44

44:                                               ; preds = %42, %18
  %45 = load ptr, ptr %4, align 8, !tbaa !46
  %46 = call i64 @H5Rget_obj_name(ptr noundef %45, i64 noundef 0, ptr noundef null, i64 noundef 0)
  store i64 %46, ptr %5, align 8, !tbaa !17
  br label %47

47:                                               ; preds = %44
  br label %48

48:                                               ; preds = %47
  br label %49

49:                                               ; preds = %48
  %50 = load i64, ptr %5, align 8, !tbaa !17
  %51 = icmp ne i64 %50, 0
  br i1 %51, label %52, label %75

52:                                               ; preds = %49
  call void @llvm.lifetime.start.p0(i64 8, ptr %7) #12
  %53 = load i64, ptr %5, align 8, !tbaa !17
  %54 = mul i64 1, %53
  %55 = add i64 %54, 1
  %56 = call noalias ptr @malloc(i64 noundef %55) #15
  store ptr %56, ptr %7, align 8, !tbaa !14
  %57 = load ptr, ptr %4, align 8, !tbaa !46
  %58 = load ptr, ptr %7, align 8, !tbaa !14
  %59 = load i64, ptr %5, align 8, !tbaa !17
  %60 = add i64 %59, 1
  %61 = call i64 @H5Rget_obj_name(ptr noundef %57, i64 noundef 0, ptr noundef %58, i64 noundef %60)
  %62 = icmp sge i64 %61, 0
  br i1 %62, label %63, label %73

63:                                               ; preds = %52
  %64 = load ptr, ptr %7, align 8, !tbaa !14
  %65 = load i64, ptr %5, align 8, !tbaa !17
  %66 = getelementptr inbounds i8, ptr %64, i64 %65
  store i8 0, ptr %66, align 1, !tbaa !18
  br label %67

67:                                               ; preds = %63
  br label %68

68:                                               ; preds = %67
  br label %69

69:                                               ; preds = %68
  %70 = load ptr, ptr %3, align 8, !tbaa !3
  %71 = load ptr, ptr %7, align 8, !tbaa !14
  %72 = call ptr (ptr, ptr, ...) @h5tools_str_append(ptr noundef %70, ptr noundef @.str, ptr noundef %71)
  br label %73

73:                                               ; preds = %69, %52
  %74 = load ptr, ptr %7, align 8, !tbaa !14
  call void @free(ptr noundef %74) #12
  call void @llvm.lifetime.end.p0(i64 8, ptr %7) #12
  br label %75

75:                                               ; preds = %73, %49
  %76 = load ptr, ptr %4, align 8, !tbaa !46
  %77 = call i32 @H5Rget_type(ptr noundef %76)
  %78 = icmp eq i32 %77, 4
  br i1 %78, label %79, label %111

79:                                               ; preds = %75
  %80 = load ptr, ptr %4, align 8, !tbaa !46
  %81 = call i64 @H5Rget_attr_name(ptr noundef %80, ptr noundef null, i64 noundef 0)
  store i64 %81, ptr %5, align 8, !tbaa !17
  br label %82

82:                                               ; preds = %79
  br label %83

83:                                               ; preds = %82
  br label %84

84:                                               ; preds = %83
  %85 = load i64, ptr %5, align 8, !tbaa !17
  %86 = icmp ne i64 %85, 0
  br i1 %86, label %87, label %110

87:                                               ; preds = %84
  call void @llvm.lifetime.start.p0(i64 8, ptr %8) #12
  %88 = load i64, ptr %5, align 8, !tbaa !17
  %89 = mul i64 1, %88
  %90 = add i64 %89, 1
  %91 = call noalias ptr @malloc(i64 noundef %90) #15
  store ptr %91, ptr %8, align 8, !tbaa !14
  %92 = load ptr, ptr %4, align 8, !tbaa !46
  %93 = load ptr, ptr %8, align 8, !tbaa !14
  %94 = load i64, ptr %5, align 8, !tbaa !17
  %95 = add i64 %94, 1
  %96 = call i64 @H5Rget_attr_name(ptr noundef %92, ptr noundef %93, i64 noundef %95)
  %97 = icmp sge i64 %96, 0
  br i1 %97, label %98, label %108

98:                                               ; preds = %87
  %99 = load ptr, ptr %8, align 8, !tbaa !14
  %100 = load i64, ptr %5, align 8, !tbaa !17
  %101 = getelementptr inbounds i8, ptr %99, i64 %100
  store i8 0, ptr %101, align 1, !tbaa !18
  br label %102

102:                                              ; preds = %98
  br label %103

103:                                              ; preds = %102
  br label %104

104:                                              ; preds = %103
  %105 = load ptr, ptr %3, align 8, !tbaa !3
  %106 = load ptr, ptr %8, align 8, !tbaa !14
  %107 = call ptr (ptr, ptr, ...) @h5tools_str_append(ptr noundef %105, ptr noundef @.str.65, ptr noundef %106)
  br label %108

108:                                              ; preds = %104, %87
  %109 = load ptr, ptr %8, align 8, !tbaa !14
  call void @free(ptr noundef %109) #12
  call void @llvm.lifetime.end.p0(i64 8, ptr %8) #12
  br label %110

110:                                              ; preds = %108, %84
  br label %111

111:                                              ; preds = %110, %75
  %112 = load ptr, ptr %3, align 8, !tbaa !3
  %113 = call ptr (ptr, ptr, ...) @h5tools_str_append(ptr noundef %112, ptr noundef @.str.64)
  br label %114

114:                                              ; preds = %111
  br label %115

115:                                              ; preds = %114
  br label %116

116:                                              ; preds = %115
  call void @llvm.lifetime.end.p0(i64 8, ptr %5) #12
  ret void
}