; Function Attrs: nounwind uwtable
define void @h5tools_str_sprint_reference(ptr noundef captures(none) %0, ptr noundef %1) local_unnamed_addr #4 {
  %3 = tail call ptr (ptr, ptr, ...) @h5tools_str_append(ptr noundef %0, ptr noundef nonnull @.str.63)
  %4 = tail call i64 @H5Rget_file_name(ptr noundef %1, ptr noundef null, i64 noundef 0) #21
  %.not = icmp eq i64 %4, 0
  br i1 %.not, label %14, label %5

5:                                                ; preds = %2
  %6 = add i64 %4, 1
  %7 = tail call noalias ptr @malloc(i64 noundef %6) #22
  %8 = tail call i64 @H5Rget_file_name(ptr noundef %1, ptr noundef %7, i64 noundef %6) #21
  %9 = icmp sgt i64 %8, -1
  br i1 %9, label %10, label %13

10:                                               ; preds = %5
  %11 = getelementptr inbounds i8, ptr %7, i64 %4
  store i8 0, ptr %11, align 1, !tbaa !12
  %12 = tail call ptr (ptr, ptr, ...) @h5tools_str_append(ptr noundef %0, ptr noundef nonnull @.str, ptr noundef %7)
  br label %13

13:                                               ; preds = %10, %5
  tail call void @free(ptr noundef %7) #21
  br label %14

14:                                               ; preds = %13, %2
  %15 = tail call i64 @H5Rget_obj_name(ptr noundef %1, i64 noundef 0, ptr noundef null, i64 noundef 0) #21
  %.not37 = icmp eq i64 %15, 0
  br i1 %.not37, label %25, label %16

16:                                               ; preds = %14
  %17 = add i64 %15, 1
  %18 = tail call noalias ptr @malloc(i64 noundef %17) #22
  %19 = tail call i64 @H5Rget_obj_name(ptr noundef %1, i64 noundef 0, ptr noundef %18, i64 noundef %17) #21
  %20 = icmp sgt i64 %19, -1
  br i1 %20, label %21, label %24

21:                                               ; preds = %16
  %22 = getelementptr inbounds i8, ptr %18, i64 %15
  store i8 0, ptr %22, align 1, !tbaa !12
  %23 = tail call ptr (ptr, ptr, ...) @h5tools_str_append(ptr noundef %0, ptr noundef nonnull @.str, ptr noundef %18)
  br label %24

24:                                               ; preds = %21, %16
  tail call void @free(ptr noundef %18) #21
  br label %25

25:                                               ; preds = %24, %14
  %26 = tail call i32 @H5Rget_type(ptr noundef %1) #21
  %27 = icmp eq i32 %26, 4
  br i1 %27, label %28, label %39

28:                                               ; preds = %25
  %29 = tail call i64 @H5Rget_attr_name(ptr noundef %1, ptr noundef null, i64 noundef 0) #21
  %.not38 = icmp eq i64 %29, 0
  br i1 %.not38, label %39, label %30

30:                                               ; preds = %28
  %31 = add i64 %29, 1
  %32 = tail call noalias ptr @malloc(i64 noundef %31) #22
  %33 = tail call i64 @H5Rget_attr_name(ptr noundef %1, ptr noundef %32, i64 noundef %31) #21
  %34 = icmp sgt i64 %33, -1
  br i1 %34, label %35, label %38

35:                                               ; preds = %30
  %36 = getelementptr inbounds i8, ptr %32, i64 %29
  store i8 0, ptr %36, align 1, !tbaa !12
  %37 = tail call ptr (ptr, ptr, ...) @h5tools_str_append(ptr noundef %0, ptr noundef nonnull @.str.65, ptr noundef %32)
  br label %38

38:                                               ; preds = %35, %30
  tail call void @free(ptr noundef %32) #21
  br label %39

39:                                               ; preds = %28, %38, %25
  %40 = tail call ptr (ptr, ptr, ...) @h5tools_str_append(ptr noundef %0, ptr noundef nonnull @.str.64)
  ret void
}